target datalayout = "e-m:e-p270:32:32-p271:32:32-p272:64:64-i64:64-i128:128-f80:128-n8:16:32:64-S128"
target triple = "x86_64-pc-linux-gnu"

%"class.icu_77::UnicodeString" = type { %"class.icu_77::Replaceable", %"union.icu_77::UnicodeString::StackBufferOrFields" }
%"class.icu_77::Replaceable" = type { %"class.icu_77::UObject" }
%"class.icu_77::UObject" = type { ptr }
%"union.icu_77::UnicodeString::StackBufferOrFields" = type { %struct.anon.0, [32 x i8] }
%struct.anon.0 = type { i16, i32, i32, ptr }
%struct.anon = type { i16, [27 x i16] }
%"class.icu_77::FormatParser" = type { ptr, [50 x %"class.icu_77::UnicodeString"], i32, i32 }

; Function Attrs: inlinehint mustprogress nounwind uwtable
define linkonce_odr noundef i32 @_ZNK6icu_7713UnicodeString14getShortLengthEv(ptr noundef nonnull align 8 dereferenceable(64) %0) #2 comdat align 2 {
  %2 = alloca ptr, align 8
  store ptr %0, ptr %2, align 8, !tbaa !60
  %3 = load ptr, ptr %2, align 8
  %4 = getelementptr inbounds nuw %"class.icu_77::UnicodeString", ptr %3, i32 0, i32 1
  %5 = getelementptr inbounds nuw %struct.anon.0, ptr %4, i32 0, i32 0
  %6 = load i16, ptr %5, align 8, !tbaa !62
  %7 = sext i16 %6 to i32
  %8 = ashr i32 %7, 5
  ret i32 %8
}

; Function Attrs: inlinehint mustprogress nounwind uwtable
define linkonce_odr noundef signext i8 @_ZNK6icu_7713UnicodeString14hasShortLengthEv(ptr noundef nonnull align 8 dereferenceable(64) %0) #2 comdat align 2 {
  %2 = alloca ptr, align 8
  store ptr %0, ptr %2, align 8, !tbaa !60
  %3 = load ptr, ptr %2, align 8
  %4 = getelementptr inbounds nuw %"class.icu_77::UnicodeString", ptr %3, i32 0, i32 1
  %5 = getelementptr inbounds nuw %struct.anon.0, ptr %4, i32 0, i32 0
  %6 = load i16, ptr %5, align 8, !tbaa !62
  %7 = sext i16 %6 to i32
  %8 = icmp sge i32 %7, 0
  %9 = zext i1 %8 to i8
  ret i8 %9
}

; Function Attrs: inlinehint mustprogress nounwind uwtable
define linkonce_odr noundef ptr @_ZNK6icu_7713UnicodeString13getArrayStartEv(ptr noundef nonnull align 8 dereferenceable(64) %0) #2 comdat align 2 {
  %2 = alloca ptr, align 8
  store ptr %0, ptr %2, align 8, !tbaa !60
  %3 = load ptr, ptr %2, align 8
  %4 = getelementptr inbounds nuw %"class.icu_77::UnicodeString", ptr %3, i32 0, i32 1
  %5 = getelementptr inbounds nuw %struct.anon.0, ptr %4, i32 0, i32 0
  %6 = load i16, ptr %5, align 8, !tbaa !62
  %7 = sext i16 %6 to i32
  %8 = and i32 %7, 2
  %9 = icmp ne i32 %8, 0
  br i1 %9, label %10, label %14

10:                                               ; preds = %1
  %11 = getelementptr inbounds nuw %"class.icu_77::UnicodeString", ptr %3, i32 0, i32 1
  %12 = getelementptr inbounds nuw %struct.anon, ptr %11, i32 0, i32 1
  %13 = getelementptr inbounds [27 x i16], ptr %12, i64 0, i64 0
  br label %18

14:                                               ; preds = %1
  %15 = getelementptr inbounds nuw %"class.icu_77::UnicodeString", ptr %3, i32 0, i32 1
  %16 = getelementptr inbounds nuw %struct.anon.0, ptr %15, i32 0, i32 3
  %17 = load ptr, ptr %16, align 8, !tbaa !62
  br label %18

18:                                               ; preds = %14, %10
  %19 = phi ptr [ %13, %10 ], [ %17, %14 ]
  ret ptr %19
}

; Function Attrs: inlinehint mustprogress uwtable
define linkonce_odr noundef i32 @_ZNK6icu_7713UnicodeString6lengthEv(ptr noundef nonnull align 8 dereferenceable(64) %0) #3 comdat align 2 {
  %2 = alloca ptr, align 8
  store ptr %0, ptr %2, align 8, !tbaa !60
  %3 = load ptr, ptr %2, align 8
  %4 = call noundef signext i8 @_ZNK6icu_7713UnicodeString14hasShortLengthEv(ptr noundef nonnull align 8 dereferenceable(64) %3)
  %5 = icmp ne i8 %4, 0
  br i1 %5, label %6, label %8

6:                                                ; preds = %1
  %7 = call noundef i32 @_ZNK6icu_7713UnicodeString14getShortLengthEv(ptr noundef nonnull align 8 dereferenceable(64) %3)
  br label %12

8:                                                ; preds = %1
  %9 = getelementptr inbounds nuw %"class.icu_77::UnicodeString", ptr %3, i32 0, i32 1
  %10 = getelementptr inbounds nuw %struct.anon.0, ptr %9, i32 0, i32 1
  %11 = load i32, ptr %10, align 4, !tbaa !62
  br label %12

12:                                               ; preds = %8, %6
  %13 = phi i32 [ %7, %6 ], [ %11, %8 ]
  ret i32 %13
}

; Function Attrs: inlinehint mustprogress uwtable
define linkonce_odr noundef zeroext i16 @_ZNK6icu_7713UnicodeString8doCharAtEi(ptr noundef nonnull align 8 dereferenceable(64) %0, i32 noundef %1) #3 comdat align 2 {
  %3 = alloca i16, align 2
  %4 = alloca ptr, align 8
  %5 = alloca i32, align 4
  store ptr %0, ptr %4, align 8, !tbaa !60
  store i32 %1, ptr %5, align 4, !tbaa !14
  %6 = load ptr, ptr %4, align 8
  %7 = load i32, ptr %5, align 4, !tbaa !14
  %8 = call noundef i32 @_ZNK6icu_7713UnicodeString6lengthEv(ptr noundef nonnull align 8 dereferenceable(64) %6)
  %9 = icmp ult i32 %7, %8
  br i1 %9, label %10, label %16

10:                                               ; preds = %2
  %11 = call noundef ptr @_ZNK6icu_7713UnicodeString13getArrayStartEv(ptr noundef nonnull align 8 dereferenceable(64) %6)
  %12 = load i32, ptr %5, align 4, !tbaa !14
  %13 = sext i32 %12 to i64
  %14 = getelementptr inbounds i16, ptr %11, i64 %13
  %15 = load i16, ptr %14, align 2, !tbaa !104
  store i16 %15, ptr %3, align 2
  br label %17

16:                                               ; preds = %2
  store i16 -1, ptr %3, align 2
  br label %17

17:                                               ; preds = %16, %10
  %18 = load i16, ptr %3, align 2
  ret i16 %18
}

; Function Attrs: inlinehint mustprogress nounwind uwtable
define linkonce_odr void @_ZN6icu_7713UnicodeString13setZeroLengthEv(ptr noundef nonnull align 8 dereferenceable(64) %0) #2 comdat align 2 {
  %2 = alloca ptr, align 8
  store ptr %0, ptr %2, align 8, !tbaa !60
  %3 = load ptr, ptr %2, align 8
  %4 = getelementptr inbounds nuw %"class.icu_77::UnicodeString", ptr %3, i32 0, i32 1
  %5 = getelementptr inbounds nuw %struct.anon.0, ptr %4, i32 0, i32 0
  %6 = load i16, ptr %5, align 8, !tbaa !62
  %7 = sext i16 %6 to i32
  %8 = and i32 %7, 31
  %9 = trunc i32 %8 to i16
  store i16 %9, ptr %5, align 8, !tbaa !62
  ret void
}

; Function Attrs: inlinehint mustprogress nounwind uwtable
define linkonce_odr void @_ZN6icu_7713UnicodeString10setToEmptyEv(ptr noundef nonnull align 8 dereferenceable(64) %0) #2 comdat align 2 {
  %2 = alloca ptr, align 8
  store ptr %0, ptr %2, align 8, !tbaa !60
  %3 = load ptr, ptr %2, align 8
  %4 = getelementptr inbounds nuw %"class.icu_77::UnicodeString", ptr %3, i32 0, i32 1
  %5 = getelementptr inbounds nuw %struct.anon.0, ptr %4, i32 0, i32 0
  store i16 2, ptr %5, align 8, !tbaa !62
  ret void
}

; Function Attrs: inlinehint mustprogress nounwind uwtable
define linkonce_odr noundef signext i8 @_ZNK6icu_7713UnicodeString7isBogusEv(ptr noundef nonnull align 8 dereferenceable(64) %0) #2 comdat align 2 {
  %2 = alloca ptr, align 8
  store ptr %0, ptr %2, align 8, !tbaa !60
  %3 = load ptr, ptr %2, align 8
  %4 = getelementptr inbounds nuw %"class.icu_77::UnicodeString", ptr %3, i32 0, i32 1
  %5 = getelementptr inbounds nuw %struct.anon.0, ptr %4, i32 0, i32 0
  %6 = load i16, ptr %5, align 8, !tbaa !62
  %7 = sext i16 %6 to i32
  %8 = and i32 %7, 1
  %9 = trunc i32 %8 to i8
  ret i8 %9
}

; Function Attrs: inlinehint mustprogress uwtable
define linkonce_odr noundef nonnull align 8 dereferenceable(64) ptr @_ZN6icu_7713UnicodeStringpLERKS0_(ptr noundef nonnull align 8 dereferenceable(64) %0, ptr noundef nonnull align 8 dereferenceable(64) %1) #3 comdat align 2 {
  %3 = alloca ptr, align 8
  %4 = alloca ptr, align 8
  store ptr %0, ptr %3, align 8, !tbaa !60
  store ptr %1, ptr %4, align 8, !tbaa !60
  %5 = load ptr, ptr %3, align 8
  %6 = load ptr, ptr %4, align 8, !tbaa !60
  %7 = load ptr, ptr %4, align 8, !tbaa !60
  %8 = call noundef i32 @_ZNK6icu_7713UnicodeString6lengthEv(ptr noundef nonnull align 8 dereferenceable(64) %7)
  %9 = call noundef nonnull align 8 dereferenceable(64) ptr @_ZN6icu_7713UnicodeString8doAppendERKS0_ii(ptr noundef nonnull align 8 dereferenceable(64) %5, ptr noundef nonnull align 8 dereferenceable(64) %6, i32 noundef 0, i32 noundef %8)
  ret ptr %9
}

; Function Attrs: inlinehint mustprogress uwtable
define linkonce_odr noundef zeroext i16 @_ZNK6icu_7713UnicodeString6charAtEi(ptr noundef nonnull align 8 dereferenceable(64) %0, i32 noundef %1) #3 comdat align 2 {
  %3 = alloca ptr, align 8
  %4 = alloca i32, align 4
  store ptr %0, ptr %3, align 8, !tbaa !60
  store i32 %1, ptr %4, align 4, !tbaa !14
  %5 = load ptr, ptr %3, align 8
  %6 = load i32, ptr %4, align 4, !tbaa !14
  %7 = call noundef zeroext i16 @_ZNK6icu_7713UnicodeString8doCharAtEi(ptr noundef nonnull align 8 dereferenceable(64) %5, i32 noundef %6)
  ret i16 %7
}

; Function Attrs: inlinehint mustprogress uwtable
define linkonce_odr noundef nonnull align 8 dereferenceable(64) ptr @_ZN6icu_7713UnicodeString6removeEv(ptr noundef nonnull align 8 dereferenceable(64) %0) #3 comdat align 2 {
  %2 = alloca ptr, align 8
  store ptr %0, ptr %2, align 8, !tbaa !60
  %3 = load ptr, ptr %2, align 8
  %4 = call noundef signext i8 @_ZNK6icu_7713UnicodeString7isBogusEv(ptr noundef nonnull align 8 dereferenceable(64) %3)
  %5 = icmp ne i8 %4, 0
  br i1 %5, label %6, label %7

6:                                                ; preds = %1
  call void @_ZN6icu_7713UnicodeString10setToEmptyEv(ptr noundef nonnull align 8 dereferenceable(64) %3)
  br label %8

7:                                                ; preds = %1
  call void @_ZN6icu_7713UnicodeString13setZeroLengthEv(ptr noundef nonnull align 8 dereferenceable(64) %3)
  br label %8

8:                                                ; preds = %7, %6
  ret ptr %3
}

; Function Attrs: mustprogress uwtable
define void @_ZN6icu_7712FormatParser15getQuoteLiteralERNS_13UnicodeStringEPi(ptr noundef nonnull align 8 dereferenceable(3216) %0, ptr noundef nonnull align 8 dereferenceable(64) %1, ptr noundef %2) #1 align 2 {
  %4 = alloca ptr, align 8
  %5 = alloca ptr, align 8
  %6 = alloca ptr, align 8
  %7 = alloca i32, align 4
  store ptr %0, ptr %4, align 8, !tbaa !69
  store ptr %1, ptr %5, align 8, !tbaa !60
  store ptr %2, ptr %6, align 8, !tbaa !20
  %8 = load ptr, ptr %4, align 8
  call void @llvm.lifetime.start.p0(i64 4, ptr %7) #13
  %9 = load ptr, ptr %6, align 8, !tbaa !20
  %10 = load i32, ptr %9, align 4, !tbaa !14
  store i32 %10, ptr %7, align 4, !tbaa !14
  %11 = load ptr, ptr %5, align 8, !tbaa !60
  %12 = call noundef nonnull align 8 dereferenceable(64) ptr @_ZN6icu_7713UnicodeString6removeEv(ptr noundef nonnull align 8 dereferenceable(64) %11)
  %13 = getelementptr inbounds nuw %"class.icu_77::FormatParser", ptr %8, i32 0, i32 1
  %14 = load i32, ptr %7, align 4, !tbaa !14
  %15 = sext i32 %14 to i64
  %16 = getelementptr inbounds [50 x %"class.icu_77::UnicodeString"], ptr %13, i64 0, i64 %15
  %17 = call noundef zeroext i16 @_ZNK6icu_7713UnicodeString6charAtEi(ptr noundef nonnull align 8 dereferenceable(64) %16, i32 noundef 0)
  %18 = zext i16 %17 to i32
  %19 = icmp eq i32 %18, 39
  br i1 %19, label %20, label %29

20:                                               ; preds = %3
  %21 = getelementptr inbounds nuw %"class.icu_77::FormatParser", ptr %8, i32 0, i32 1
  %22 = load i32, ptr %7, align 4, !tbaa !14
  %23 = sext i32 %22 to i64
  %24 = getelementptr inbounds [50 x %"class.icu_77::UnicodeString"], ptr %21, i64 0, i64 %23
  %25 = load ptr, ptr %5, align 8, !tbaa !60
  %26 = call noundef nonnull align 8 dereferenceable(64) ptr @_ZN6icu_7713UnicodeStringpLERKS0_(ptr noundef nonnull align 8 dereferenceable(64) %25, ptr noundef nonnull align 8 dereferenceable(64) %24)
  %27 = load i32, ptr %7, align 4, !tbaa !14
  %28 = add nsw i32 %27, 1
  store i32 %28, ptr %7, align 4, !tbaa !14
  br label %29

29:                                               ; preds = %20, %3
  br label %30

30:                                               ; preds = %87, %58, %29
  %31 = load i32, ptr %7, align 4, !tbaa !14
  %32 = getelementptr inbounds nuw %"class.icu_77::FormatParser", ptr %8, i32 0, i32 2
  %33 = load i32, ptr %32, align 8, !tbaa !136
  %34 = icmp slt i32 %31, %33
  br i1 %34, label %35, label %90

35:                                               ; preds = %30
  %36 = getelementptr inbounds nuw %"class.icu_77::FormatParser", ptr %8, i32 0, i32 1
  %37 = load i32, ptr %7, align 4, !tbaa !14
  %38 = sext i32 %37 to i64
  %39 = getelementptr inbounds [50 x %"class.icu_77::UnicodeString"], ptr %36, i64 0, i64 %38
  %40 = call noundef zeroext i16 @_ZNK6icu_7713UnicodeString6charAtEi(ptr noundef nonnull align 8 dereferenceable(64) %39, i32 noundef 0)
  %41 = zext i16 %40 to i32
  %42 = icmp eq i32 %41, 39
  br i1 %42, label %43, label %80

43:                                               ; preds = %35
  %44 = load i32, ptr %7, align 4, !tbaa !14
  %45 = add nsw i32 %44, 1
  %46 = getelementptr inbounds nuw %"class.icu_77::FormatParser", ptr %8, i32 0, i32 2
  %47 = load i32, ptr %46, align 8, !tbaa !136
  %48 = icmp slt i32 %45, %47
  br i1 %48, label %49, label %73

49:                                               ; preds = %43
  %50 = getelementptr inbounds nuw %"class.icu_77::FormatParser", ptr %8, i32 0, i32 1
  %51 = load i32, ptr %7, align 4, !tbaa !14
  %52 = add nsw i32 %51, 1
  %53 = sext i32 %52 to i64
  %54 = getelementptr inbounds [50 x %"class.icu_77::UnicodeString"], ptr %50, i64 0, i64 %53
  %55 = call noundef zeroext i16 @_ZNK6icu_7713UnicodeString6charAtEi(ptr noundef nonnull align 8 dereferenceable(64) %54, i32 noundef 0)
  %56 = zext i16 %55 to i32
  %57 = icmp eq i32 %56, 39
  br i1 %57, label %58, label %73

58:                                               ; preds = %49
  %59 = getelementptr inbounds nuw %"class.icu_77::FormatParser", ptr %8, i32 0, i32 1
  %60 = load i32, ptr %7, align 4, !tbaa !14
  %61 = add nsw i32 %60, 1
  store i32 %61, ptr %7, align 4, !tbaa !14
  %62 = sext i32 %60 to i64
  %63 = getelementptr inbounds [50 x %"class.icu_77::UnicodeString"], ptr %59, i64 0, i64 %62
  %64 = load ptr, ptr %5, align 8, !tbaa !60
  %65 = call noundef nonnull align 8 dereferenceable(64) ptr @_ZN6icu_7713UnicodeStringpLERKS0_(ptr noundef nonnull align 8 dereferenceable(64) %64, ptr noundef nonnull align 8 dereferenceable(64) %63)
  %66 = getelementptr inbounds nuw %"class.icu_77::FormatParser", ptr %8, i32 0, i32 1
  %67 = load i32, ptr %7, align 4, !tbaa !14
  %68 = add nsw i32 %67, 1
  store i32 %68, ptr %7, align 4, !tbaa !14
  %69 = sext i32 %67 to i64
  %70 = getelementptr inbounds [50 x %"class.icu_77::UnicodeString"], ptr %66, i64 0, i64 %69
  %71 = load ptr, ptr %5, align 8, !tbaa !60
  %72 = call noundef nonnull align 8 dereferenceable(64) ptr @_ZN6icu_7713UnicodeStringpLERKS0_(ptr noundef nonnull align 8 dereferenceable(64) %71, ptr noundef nonnull align 8 dereferenceable(64) %70)
  br label %30, !llvm.loop !159

73:                                               ; preds = %49, %43
  %74 = getelementptr inbounds nuw %"class.icu_77::FormatParser", ptr %8, i32 0, i32 1
  %75 = load i32, ptr %7, align 4, !tbaa !14
  %76 = sext i32 %75 to i64
  %77 = getelementptr inbounds [50 x %"class.icu_77::UnicodeString"], ptr %74, i64 0, i64 %76
  %78 = load ptr, ptr %5, align 8, !tbaa !60
  %79 = call noundef nonnull align 8 dereferenceable(64) ptr @_ZN6icu_7713UnicodeStringpLERKS0_(ptr noundef nonnull align 8 dereferenceable(64) %78, ptr noundef nonnull align 8 dereferenceable(64) %77)
  br label %90

80:                                               ; preds = %35
  %81 = getelementptr inbounds nuw %"class.icu_77::FormatParser", ptr %8, i32 0, i32 1
  %82 = load i32, ptr %7, align 4, !tbaa !14
  %83 = sext i32 %82 to i64
  %84 = getelementptr inbounds [50 x %"class.icu_77::UnicodeString"], ptr %81, i64 0, i64 %83
  %85 = load ptr, ptr %5, align 8, !tbaa !60
  %86 = call noundef nonnull align 8 dereferenceable(64) ptr @_ZN6icu_7713UnicodeStringpLERKS0_(ptr noundef nonnull align 8 dereferenceable(64) %85, ptr noundef nonnull align 8 dereferenceable(64) %84)
  br label %87

87:                                               ; preds = %80
  %88 = load i32, ptr %7, align 4, !tbaa !14
  %89 = add nsw i32 %88, 1
  store i32 %89, ptr %7, align 4, !tbaa !14
  br label %30, !llvm.loop !159

90:                                               ; preds = %73, %30
  %91 = load i32, ptr %7, align 4, !tbaa !14
  %92 = load ptr, ptr %6, align 8, !tbaa !20
  store i32 %91, ptr %92, align 4, !tbaa !14
  call void @llvm.lifetime.end.p0(i64 4, ptr %7) #13
  ret void
}