; Function Attrs: mustprogress uwtable
define void @_ZN6icu_7712FormatParser15getQuoteLiteralERNS_13UnicodeStringEPi(ptr noundef nonnull align 8 dereferenceable(3216) %0, ptr noundef nonnull align 8 dereferenceable(64) %1, ptr noundef captures(none) %2) local_unnamed_addr #1 align 2 {
  %4 = load i32, ptr %2, align 4, !tbaa !12
  %5 = getelementptr inbounds nuw i8, ptr %1, i64 8
  %6 = load i16, ptr %5, align 8, !tbaa !17
  %7 = and i16 %6, 1
  %.not.i = icmp eq i16 %7, 0
  %8 = and i16 %6, 30
  %storemerge.i = select i1 %.not.i, i16 %8, i16 2
  store i16 %storemerge.i, ptr %5, align 8, !tbaa !17
  %9 = getelementptr inbounds nuw i8, ptr %0, i64 8
  %10 = sext i32 %4 to i64
  %11 = getelementptr inbounds [50 x %"class.icu_77::UnicodeString"], ptr %9, i64 0, i64 %10
  %12 = getelementptr inbounds nuw i8, ptr %11, i64 8
  %13 = load i16, ptr %12, align 8, !tbaa !17
  %14 = icmp slt i16 %13, 0
  %15 = ashr i16 %13, 5
  %16 = sext i16 %15 to i32
  %17 = getelementptr inbounds nuw i8, ptr %11, i64 12
  %18 = load i32, ptr %17, align 4
  %19 = select i1 %14, i32 %18, i32 %16
  %.not = icmp eq i32 %19, 0
  br i1 %.not, label %_ZNK6icu_7713UnicodeString6charAtEi.exit.thread, label %_ZNK6icu_7713UnicodeString6charAtEi.exit

_ZNK6icu_7713UnicodeString6charAtEi.exit:         ; preds = %3
  %20 = and i16 %13, 2
  %.not.i.i.i = icmp eq i16 %20, 0
  %21 = getelementptr inbounds nuw i8, ptr %11, i64 10
  %22 = getelementptr inbounds nuw i8, ptr %11, i64 24
  %23 = load ptr, ptr %22, align 8
  %24 = select i1 %.not.i.i.i, ptr %23, ptr %21
  %25 = load i16, ptr %24, align 2, !tbaa !79
  %26 = icmp eq i16 %25, 39
  br i1 %26, label %27, label %_ZNK6icu_7713UnicodeString6charAtEi.exit.thread

27:                                               ; preds = %_ZNK6icu_7713UnicodeString6charAtEi.exit
  %28 = tail call noundef nonnull align 8 dereferenceable(64) ptr @_ZN6icu_7713UnicodeString8doAppendERKS0_ii(ptr noundef nonnull align 8 dereferenceable(64) %1, ptr noundef nonnull align 8 dereferenceable(64) %11, i32 noundef 0, i32 noundef %19)
  %29 = add nsw i32 %4, 1
  br label %_ZNK6icu_7713UnicodeString6charAtEi.exit.thread

_ZNK6icu_7713UnicodeString6charAtEi.exit.thread:  ; preds = %3, %27, %_ZNK6icu_7713UnicodeString6charAtEi.exit
  %.0 = phi i32 [ %29, %27 ], [ %4, %_ZNK6icu_7713UnicodeString6charAtEi.exit ], [ %4, %3 ]
  %30 = getelementptr inbounds nuw i8, ptr %0, i64 3208
  %31 = load i32, ptr %30, align 8, !tbaa !102
  %32 = icmp slt i32 %.0, %31
  br i1 %32, label %.lr.ph, label %.loopexit

.lr.ph:                                           ; preds = %_ZNK6icu_7713UnicodeString6charAtEi.exit.thread, %.backedge
  %33 = phi i32 [ %82, %.backedge ], [ %31, %_ZNK6icu_7713UnicodeString6charAtEi.exit.thread ]
  %.136 = phi i32 [ %.1.be, %.backedge ], [ %.0, %_ZNK6icu_7713UnicodeString6charAtEi.exit.thread ]
  %34 = sext i32 %.136 to i64
  %35 = getelementptr inbounds [50 x %"class.icu_77::UnicodeString"], ptr %9, i64 0, i64 %34
  %36 = getelementptr inbounds nuw i8, ptr %35, i64 8
  %37 = load i16, ptr %36, align 8, !tbaa !17
  %38 = icmp slt i16 %37, 0
  %39 = ashr i16 %37, 5
  %40 = sext i16 %39 to i32
  %41 = getelementptr inbounds nuw i8, ptr %35, i64 12
  %42 = load i32, ptr %41, align 4
  %43 = select i1 %38, i32 %42, i32 %40
  %.not31 = icmp eq i32 %43, 0
  br i1 %.not31, label %_ZNK6icu_7713UnicodeString6charAtEi.exit24.thread, label %_ZNK6icu_7713UnicodeString6charAtEi.exit24

_ZNK6icu_7713UnicodeString6charAtEi.exit24:       ; preds = %.lr.ph
  %44 = and i16 %37, 2
  %.not.i.i.i23 = icmp eq i16 %44, 0
  %45 = getelementptr inbounds nuw i8, ptr %35, i64 10
  %46 = getelementptr inbounds nuw i8, ptr %35, i64 24
  %47 = load ptr, ptr %46, align 8
  %48 = select i1 %.not.i.i.i23, ptr %47, ptr %45
  %49 = load i16, ptr %48, align 2, !tbaa !79
  %50 = icmp eq i16 %49, 39
  br i1 %50, label %51, label %_ZNK6icu_7713UnicodeString6charAtEi.exit24.thread

51:                                               ; preds = %_ZNK6icu_7713UnicodeString6charAtEi.exit24
  %52 = add nsw i32 %.136, 1
  %53 = icmp slt i32 %52, %33
  br i1 %53, label %54, label %_ZNK6icu_7713UnicodeString6charAtEi.exit27.thread

54:                                               ; preds = %51
  %55 = sext i32 %52 to i64
  %56 = getelementptr inbounds [50 x %"class.icu_77::UnicodeString"], ptr %9, i64 0, i64 %55
  %57 = getelementptr inbounds nuw i8, ptr %56, i64 8
  %58 = load i16, ptr %57, align 8, !tbaa !17
  %59 = icmp slt i16 %58, 0
  %60 = ashr i16 %58, 5
  %61 = sext i16 %60 to i32
  %62 = getelementptr inbounds nuw i8, ptr %56, i64 12
  %63 = load i32, ptr %62, align 4
  %64 = select i1 %59, i32 %63, i32 %61
  %.not32 = icmp eq i32 %64, 0
  br i1 %.not32, label %_ZNK6icu_7713UnicodeString6charAtEi.exit27.thread, label %_ZNK6icu_7713UnicodeString6charAtEi.exit27

_ZNK6icu_7713UnicodeString6charAtEi.exit27:       ; preds = %54
  %65 = and i16 %58, 2
  %.not.i.i.i26 = icmp eq i16 %65, 0
  %66 = getelementptr inbounds nuw i8, ptr %56, i64 10
  %67 = getelementptr inbounds nuw i8, ptr %56, i64 24
  %68 = load ptr, ptr %67, align 8
  %69 = select i1 %.not.i.i.i26, ptr %68, ptr %66
  %70 = load i16, ptr %69, align 2, !tbaa !79
  %71 = icmp eq i16 %70, 39
  br i1 %71, label %72, label %_ZNK6icu_7713UnicodeString6charAtEi.exit27.thread

72:                                               ; preds = %_ZNK6icu_7713UnicodeString6charAtEi.exit27
  %73 = tail call noundef nonnull align 8 dereferenceable(64) ptr @_ZN6icu_7713UnicodeString8doAppendERKS0_ii(ptr noundef nonnull align 8 dereferenceable(64) %1, ptr noundef nonnull align 8 dereferenceable(64) %35, i32 noundef 0, i32 noundef %43)
  %74 = add nsw i32 %.136, 2
  %75 = load i16, ptr %57, align 8, !tbaa !17
  %76 = icmp slt i16 %75, 0
  %77 = ashr i16 %75, 5
  %78 = sext i16 %77 to i32
  %79 = load i32, ptr %62, align 4
  %80 = select i1 %76, i32 %79, i32 %78
  %81 = tail call noundef nonnull align 8 dereferenceable(64) ptr @_ZN6icu_7713UnicodeString8doAppendERKS0_ii(ptr noundef nonnull align 8 dereferenceable(64) %1, ptr noundef nonnull align 8 dereferenceable(64) %56, i32 noundef 0, i32 noundef %80)
  br label %.backedge

.backedge:                                        ; preds = %72, %_ZNK6icu_7713UnicodeString6charAtEi.exit24.thread
  %.1.be = phi i32 [ %74, %72 ], [ %86, %_ZNK6icu_7713UnicodeString6charAtEi.exit24.thread ]
  %82 = load i32, ptr %30, align 8, !tbaa !102
  %83 = icmp slt i32 %.1.be, %82
  br i1 %83, label %.lr.ph, label %.loopexit, !llvm.loop !122

_ZNK6icu_7713UnicodeString6charAtEi.exit27.thread: ; preds = %54, %_ZNK6icu_7713UnicodeString6charAtEi.exit27, %51
  %84 = tail call noundef nonnull align 8 dereferenceable(64) ptr @_ZN6icu_7713UnicodeString8doAppendERKS0_ii(ptr noundef nonnull align 8 dereferenceable(64) %1, ptr noundef nonnull align 8 dereferenceable(64) %35, i32 noundef 0, i32 noundef %43)
  br label %.loopexit

_ZNK6icu_7713UnicodeString6charAtEi.exit24.thread: ; preds = %.lr.ph, %_ZNK6icu_7713UnicodeString6charAtEi.exit24
  %85 = tail call noundef nonnull align 8 dereferenceable(64) ptr @_ZN6icu_7713UnicodeString8doAppendERKS0_ii(ptr noundef nonnull align 8 dereferenceable(64) %1, ptr noundef nonnull align 8 dereferenceable(64) %35, i32 noundef 0, i32 noundef %43)
  %86 = add nsw i32 %.136, 1
  br label %.backedge

.loopexit:                                        ; preds = %.backedge, %_ZNK6icu_7713UnicodeString6charAtEi.exit.thread, %_ZNK6icu_7713UnicodeString6charAtEi.exit27.thread
  %.134 = phi i32 [ %.136, %_ZNK6icu_7713UnicodeString6charAtEi.exit27.thread ], [ %.0, %_ZNK6icu_7713UnicodeString6charAtEi.exit.thread ], [ %.1.be, %.backedge ]
  store i32 %.134, ptr %2, align 4, !tbaa !12
  ret void
}